; Function Attrs: mustprogress uwtable
define dso_local void @_ZNK4absl13time_internal4cctz9time_zone11descriptionB5cxx11Ev(ptr dead_on_unwind noalias writable sret(%"class.std::__cxx11::basic_string") align 8 %0, ptr noundef nonnull readonly align 8 captures(none) dereferenceable(8) %1) local_unnamed_addr #0 align 2 {
  %3 = load ptr, ptr %1, align 8, !tbaa !4
  %4 = icmp eq ptr %3, null
  br i1 %4, label %5, label %_ZNK4absl13time_internal4cctz9time_zone14effective_implEv.exit

5:                                                ; preds = %2
  %6 = tail call ptr @_ZN4absl13time_internal4cctz9time_zone4Impl3UTCEv()
  br label %_ZNK4absl13time_internal4cctz9time_zone14effective_implEv.exit

_ZNK4absl13time_internal4cctz9time_zone14effective_implEv.exit: ; preds = %2, %5
  %.0.i = phi ptr [ %6, %5 ], [ %3, %2 ]
  %7 = getelementptr inbounds nuw i8, ptr %.0.i, i64 32
  %8 = load ptr, ptr %7, align 8, !tbaa !19, !noalias !32
  %9 = load ptr, ptr %8, align 8, !tbaa !24, !noalias !32
  %10 = getelementptr inbounds nuw i8, ptr %9, i64 56
  %11 = load ptr, ptr %10, align 8, !noalias !32
  tail call void %11(ptr dead_on_unwind writable sret(%"class.std::__cxx11::basic_string") align 8 %0, ptr noundef nonnull align 8 dereferenceable(8) %8)
  ret void
}